target datalayout = "e-m:e-p270:32:32-p271:32:32-p272:64:64-i64:64-i128:128-f80:128-n8:16:32:64-S128"
target triple = "x86_64-pc-linux-gnu"

%struct.rb_io = type { i64, ptr, i32, i32, i32, i32, i64, ptr, %struct.rb_io_internal_buffer, %struct.rb_io_internal_buffer, i64, %struct.rb_io_encoding, ptr, %struct.rb_io_internal_buffer, ptr, i64, i32, i32, i64, i64, i64 }
%struct.rb_io_encoding = type { ptr, ptr, i32, i64 }
%struct.rb_io_internal_buffer = type <{ ptr, i32, i32, i32 }>

; Function Attrs: inlinehint nounwind sspstrong willreturn memory(none) uwtable
define internal i64 @RB_INT2FIX(i64 noundef %0) #9 {
  %2 = alloca i64, align 8
  %3 = alloca i64, align 8
  %4 = alloca i64, align 8
  %5 = alloca i64, align 8
  %6 = alloca i64, align 8
  %7 = alloca i64, align 8
  store i64 %0, ptr %2, align 8, !tbaa !32
  call void @llvm.lifetime.start.p0(i64 8, ptr %3) #28
  %8 = load i64, ptr %2, align 8, !tbaa !32
  store i64 %8, ptr %3, align 8, !tbaa !32
  call void @llvm.lifetime.start.p0(i64 8, ptr %4) #28
  %9 = load i64, ptr %3, align 8, !tbaa !32
  %10 = shl i64 %9, 1
  %11 = add i64 %10, 1
  store i64 %11, ptr %4, align 8, !tbaa !32
  call void @llvm.lifetime.start.p0(i64 8, ptr %5) #28
  %12 = load i64, ptr %4, align 8, !tbaa !32
  store i64 %12, ptr %5, align 8, !tbaa !32
  call void @llvm.lifetime.start.p0(i64 8, ptr %6) #28
  %13 = load i64, ptr %5, align 8, !tbaa !32
  store i64 %13, ptr %6, align 8, !tbaa !32
  call void @llvm.lifetime.start.p0(i64 8, ptr %7) #28
  %14 = load i64, ptr %6, align 8, !tbaa !32
  store i64 %14, ptr %7, align 8, !tbaa !32
  %15 = load i64, ptr %7, align 8, !tbaa !32
  call void @llvm.lifetime.end.p0(i64 8, ptr %7) #28
  call void @llvm.lifetime.end.p0(i64 8, ptr %6) #28
  call void @llvm.lifetime.end.p0(i64 8, ptr %5) #28
  call void @llvm.lifetime.end.p0(i64 8, ptr %4) #28
  call void @llvm.lifetime.end.p0(i64 8, ptr %3) #28
  ret i64 %15
}

; Function Attrs: inlinehint nounwind sspstrong uwtable
define internal i64 @rb_int2num_inline(i32 noundef %0) #6 {
  %2 = alloca i64, align 8
  %3 = alloca i32, align 4
  store i32 %0, ptr %3, align 4, !tbaa !13
  %4 = load i32, ptr %3, align 4, !tbaa !13
  %5 = sext i32 %4 to i64
  %6 = icmp slt i64 %5, 4611686018427387904
  br i1 %6, label %7, label %15

7:                                                ; preds = %1
  %8 = load i32, ptr %3, align 4, !tbaa !13
  %9 = sext i32 %8 to i64
  %10 = icmp sge i64 %9, -4611686018427387904
  br i1 %10, label %11, label %15

11:                                               ; preds = %7
  %12 = load i32, ptr %3, align 4, !tbaa !13
  %13 = sext i32 %12 to i64
  %14 = call i64 @RB_INT2FIX(i64 noundef %13) #33
  store i64 %14, ptr %2, align 8
  br label %19

15:                                               ; preds = %7, %1
  %16 = load i32, ptr %3, align 4, !tbaa !13
  %17 = sext i32 %16 to i64
  %18 = call i64 @rb_int2big(i64 noundef %17)
  store i64 %18, ptr %2, align 8
  br label %19

19:                                               ; preds = %15, %11
  %20 = load i64, ptr %2, align 8
  ret i64 %20
}

; Function Attrs: nounwind sspstrong uwtable
define dso_local void @rb_io_read_check(ptr noundef %0) #0 {
  %2 = alloca ptr, align 8
  store ptr %0, ptr %2, align 8, !tbaa !7
  %3 = load ptr, ptr %2, align 8, !tbaa !7
  %4 = getelementptr inbounds nuw %struct.rb_io, ptr %3, i32 0, i32 9
  %5 = getelementptr inbounds nuw %struct.rb_io_internal_buffer, ptr %4, i32 0, i32 2
  %6 = load i32, ptr %5, align 4, !tbaa !44
  %7 = icmp ne i32 %6, 0
  br i1 %7, label %14, label %8

8:                                                ; preds = %1
  %9 = load ptr, ptr %2, align 8, !tbaa !7
  %10 = getelementptr inbounds nuw %struct.rb_io, ptr %9, i32 0, i32 0
  %11 = load i64, ptr %10, align 8, !tbaa !40
  %12 = call i64 @rb_int2num_inline(i32 noundef 1)
  %13 = call i64 @rb_io_wait(i64 noundef %11, i64 noundef %12, i64 noundef 4)
  br label %14

14:                                               ; preds = %8, %1
  ret void
}