; Function Attrs: nounwind sspstrong uwtable
define dso_local void @rb_io_read_check(ptr noundef readonly captures(none) %0) local_unnamed_addr #0 {
  %2 = getelementptr inbounds nuw i8, ptr %0, i64 80
  %3 = load i32, ptr %2, align 4, !tbaa !42
  %.not = icmp eq i32 %3, 0
  br i1 %.not, label %4, label %7

4:                                                ; preds = %1
  %5 = load i64, ptr %0, align 8, !tbaa !38
  %6 = tail call i64 @rb_io_wait(i64 noundef %5, i64 noundef 3, i64 noundef 4)
  br label %7

7:                                                ; preds = %4, %1
  ret void
}